target datalayout = "e-m:e-p270:32:32-p271:32:32-p272:64:64-i64:64-i128:128-f80:128-n8:16:32:64-S128"
target triple = "x86_64-pc-linux-gnu"

; Function Attrs: nounwind uwtable
define hidden ptr @hwloc_alloc_heap(ptr noundef %0, i64 noundef %1) #0 {
  %3 = alloca ptr, align 8
  %4 = alloca i64, align 8
  %5 = alloca ptr, align 8
  store ptr %0, ptr %3, align 8, !tbaa !3
  store i64 %1, ptr %4, align 8, !tbaa !40
  call void @llvm.lifetime.start.p0(i64 8, ptr %5) #9
  store ptr null, ptr %5, align 8, !tbaa !48
  %6 = call i64 @sysconf(i32 noundef 30) #9
  %7 = load i64, ptr %4, align 8, !tbaa !40
  %8 = call i32 @posix_memalign(ptr noundef %5, i64 noundef %6, i64 noundef %7) #9
  %9 = call ptr @__errno_location() #8
  store i32 %8, ptr %9, align 4, !tbaa !10
  %10 = call ptr @__errno_location() #8
  %11 = load i32, ptr %10, align 4, !tbaa !10
  %12 = icmp ne i32 %11, 0
  br i1 %12, label %13, label %14

13:                                               ; preds = %2
  store ptr null, ptr %5, align 8, !tbaa !48
  br label %14

14:                                               ; preds = %13, %2
  %15 = load ptr, ptr %5, align 8, !tbaa !48
  call void @llvm.lifetime.end.p0(i64 8, ptr %5) #9
  ret ptr %15
}