; Function Attrs: nounwind uwtable
define hidden ptr @hwloc_alloc_heap(ptr noundef readnone captures(none) %0, i64 noundef %1) local_unnamed_addr #0 {
  %3 = alloca ptr, align 8
  call void @llvm.lifetime.start.p0(i64 8, ptr nonnull %3) #14
  store ptr null, ptr %3, align 8, !tbaa !64
  %4 = tail call i64 @sysconf(i32 noundef 30) #14
  %5 = call i32 @posix_memalign(ptr noundef nonnull %3, i64 noundef %4, i64 noundef %1) #14
  %6 = tail call ptr @__errno_location() #12
  store i32 %5, ptr %6, align 4, !tbaa !3
  %.not = icmp eq i32 %5, 0
  %.pre = load ptr, ptr %3, align 8
  %7 = select i1 %.not, ptr %.pre, ptr null
  call void @llvm.lifetime.end.p0(i64 8, ptr nonnull %3) #14
  ret ptr %7
}